target datalayout = "e-m:e-p270:32:32-p271:32:32-p272:64:64-i64:64-i128:128-f80:128-n8:16:32:64-S128"
target triple = "x86_64-pc-linux-gnu"

%struct.png_image_write_control = type { ptr, ptr, i32, ptr, i32, ptr, i64, ptr, ptr, i64, i64 }
%struct.png_image = type { ptr, i32, i32, i32, i32, i32, i32, i32, [64 x i8] }

@.str.15 = private unnamed_addr constant [44 x i8] c"png_image_write_to_memory: invalid argument\00", align 1
@.str.16 = private unnamed_addr constant [55 x i8] c"png_image_write_to_memory: incorrect PNG_IMAGE_VERSION\00", align 1

; Function Attrs: nounwind uwtable
define i32 @png_image_write_to_memory(ptr noundef %0, ptr noundef %1, ptr noalias noundef %2, i32 noundef %3, ptr noundef %4, i32 noundef %5, ptr noundef %6) #0 {
  %8 = alloca i32, align 4
  %9 = alloca ptr, align 8
  %10 = alloca ptr, align 8
  %11 = alloca ptr, align 8
  %12 = alloca i32, align 4
  %13 = alloca ptr, align 8
  %14 = alloca i32, align 4
  %15 = alloca ptr, align 8
  %16 = alloca %struct.png_image_write_control, align 8
  %17 = alloca i32, align 4
  store ptr %0, ptr %9, align 8
  store ptr %1, ptr %10, align 8
  store ptr %2, ptr %11, align 8
  store i32 %3, ptr %12, align 4
  store ptr %4, ptr %13, align 8
  store i32 %5, ptr %14, align 4
  store ptr %6, ptr %15, align 8
  %18 = load ptr, ptr %9, align 8
  %19 = icmp ne ptr %18, null
  br i1 %19, label %20, label %82

20:                                               ; preds = %7
  %21 = load ptr, ptr %9, align 8
  %22 = getelementptr inbounds %struct.png_image, ptr %21, i32 0, i32 1
  %23 = load i32, ptr %22, align 8
  %24 = icmp eq i32 %23, 1
  br i1 %24, label %25, label %82

25:                                               ; preds = %20
  %26 = load ptr, ptr %11, align 8
  %27 = icmp ne ptr %26, null
  br i1 %27, label %28, label %79

28:                                               ; preds = %25
  %29 = load ptr, ptr %13, align 8
  %30 = icmp ne ptr %29, null
  br i1 %30, label %31, label %79

31:                                               ; preds = %28
  %32 = load ptr, ptr %10, align 8
  %33 = icmp eq ptr %32, null
  br i1 %33, label %34, label %36

34:                                               ; preds = %31
  %35 = load ptr, ptr %11, align 8
  store i64 0, ptr %35, align 8
  br label %36

36:                                               ; preds = %34, %31
  %37 = load ptr, ptr %9, align 8
  %38 = call i32 @png_image_write_init(ptr noundef %37)
  %39 = icmp ne i32 %38, 0
  br i1 %39, label %40, label %78

40:                                               ; preds = %36
  call void @llvm.memset.p0.i64(ptr align 8 %16, i8 0, i64 88, i1 false)
  %41 = load ptr, ptr %9, align 8
  %42 = getelementptr inbounds %struct.png_image_write_control, ptr %16, i32 0, i32 0
  store ptr %41, ptr %42, align 8
  %43 = load ptr, ptr %13, align 8
  %44 = getelementptr inbounds %struct.png_image_write_control, ptr %16, i32 0, i32 1
  store ptr %43, ptr %44, align 8
  %45 = load i32, ptr %14, align 4
  %46 = getelementptr inbounds %struct.png_image_write_control, ptr %16, i32 0, i32 2
  store i32 %45, ptr %46, align 8
  %47 = load ptr, ptr %15, align 8
  %48 = getelementptr inbounds %struct.png_image_write_control, ptr %16, i32 0, i32 3
  store ptr %47, ptr %48, align 8
  %49 = load i32, ptr %12, align 4
  %50 = getelementptr inbounds %struct.png_image_write_control, ptr %16, i32 0, i32 4
  store i32 %49, ptr %50, align 8
  %51 = load ptr, ptr %10, align 8
  %52 = getelementptr inbounds %struct.png_image_write_control, ptr %16, i32 0, i32 8
  store ptr %51, ptr %52, align 8
  %53 = load ptr, ptr %11, align 8
  %54 = load i64, ptr %53, align 8
  %55 = getelementptr inbounds %struct.png_image_write_control, ptr %16, i32 0, i32 9
  store i64 %54, ptr %55, align 8
  %56 = getelementptr inbounds %struct.png_image_write_control, ptr %16, i32 0, i32 10
  store i64 0, ptr %56, align 8
  %57 = load ptr, ptr %9, align 8
  %58 = call i32 @png_safe_execute(ptr noundef %57, ptr noundef @png_image_write_memory, ptr noundef %16)
  store i32 %58, ptr %17, align 4
  %59 = load ptr, ptr %9, align 8
  call void @png_image_free(ptr noundef %59)
  %60 = load i32, ptr %17, align 4
  %61 = icmp ne i32 %60, 0
  br i1 %61, label %62, label %76

62:                                               ; preds = %40
  %63 = load ptr, ptr %10, align 8
  %64 = icmp ne ptr %63, null
  br i1 %64, label %65, label %72

65:                                               ; preds = %62
  %66 = getelementptr inbounds %struct.png_image_write_control, ptr %16, i32 0, i32 10
  %67 = load i64, ptr %66, align 8
  %68 = load ptr, ptr %11, align 8
  %69 = load i64, ptr %68, align 8
  %70 = icmp ugt i64 %67, %69
  br i1 %70, label %71, label %72

71:                                               ; preds = %65
  store i32 0, ptr %17, align 4
  br label %72

72:                                               ; preds = %71, %65, %62
  %73 = getelementptr inbounds %struct.png_image_write_control, ptr %16, i32 0, i32 10
  %74 = load i64, ptr %73, align 8
  %75 = load ptr, ptr %11, align 8
  store i64 %74, ptr %75, align 8
  br label %76

76:                                               ; preds = %72, %40
  %77 = load i32, ptr %17, align 4
  store i32 %77, ptr %8, align 4
  br label %89

78:                                               ; preds = %36
  store i32 0, ptr %8, align 4
  br label %89

79:                                               ; preds = %28, %25
  %80 = load ptr, ptr %9, align 8
  %81 = call i32 @png_image_error(ptr noundef %80, ptr noundef @.str.15)
  store i32 %81, ptr %8, align 4
  br label %89

82:                                               ; preds = %20, %7
  %83 = load ptr, ptr %9, align 8
  %84 = icmp ne ptr %83, null
  br i1 %84, label %85, label %88

85:                                               ; preds = %82
  %86 = load ptr, ptr %9, align 8
  %87 = call i32 @png_image_error(ptr noundef %86, ptr noundef @.str.16)
  store i32 %87, ptr %8, align 4
  br label %89

88:                                               ; preds = %82
  store i32 0, ptr %8, align 4
  br label %89

89:                                               ; preds = %88, %85, %79, %78, %76
  %90 = load i32, ptr %8, align 4
  ret i32 %90
}