; Function Attrs: nounwind uwtable
define i32 @png_image_write_to_memory(ptr noundef %0, ptr noundef %1, ptr noalias noundef %2, i32 noundef %3, ptr noundef %4, i32 noundef %5, ptr noundef %6) local_unnamed_addr #0 {
  %8 = alloca %struct.png_image_write_control, align 8
  %.not = icmp eq ptr %0, null
  br i1 %.not, label %.critedge, label %9

9:                                                ; preds = %7
  %10 = getelementptr inbounds i8, ptr %0, i64 8
  %11 = load i32, ptr %10, align 8
  %12 = icmp eq i32 %11, 1
  br i1 %12, label %13, label %39

13:                                               ; preds = %9
  %14 = icmp ne ptr %2, null
  %15 = icmp ne ptr %4, null
  %or.cond = and i1 %14, %15
  br i1 %or.cond, label %16, label %37

16:                                               ; preds = %13
  %17 = icmp eq ptr %1, null
  br i1 %17, label %18, label %19

18:                                               ; preds = %16
  store i64 0, ptr %2, align 8
  br label %19

19:                                               ; preds = %18, %16
  %20 = tail call fastcc i32 @png_image_write_init(ptr noundef nonnull %0)
  %.not32 = icmp eq i32 %20, 0
  br i1 %.not32, label %.critedge, label %21

21:                                               ; preds = %19
  %22 = getelementptr inbounds i8, ptr %8, i64 16
  call void @llvm.memset.p0.i64(ptr noundef nonnull align 8 dereferenceable(88) %22, i8 0, i64 48, i1 false)
  store ptr %0, ptr %8, align 8
  %23 = getelementptr inbounds i8, ptr %8, i64 8
  store ptr %4, ptr %23, align 8
  %24 = getelementptr inbounds i8, ptr %8, i64 16
  store i32 %5, ptr %24, align 8
  %25 = getelementptr inbounds i8, ptr %8, i64 24
  store ptr %6, ptr %25, align 8
  %26 = getelementptr inbounds i8, ptr %8, i64 32
  store i32 %3, ptr %26, align 8
  %27 = getelementptr inbounds i8, ptr %8, i64 64
  store ptr %1, ptr %27, align 8
  %28 = load i64, ptr %2, align 8
  %29 = getelementptr inbounds i8, ptr %8, i64 72
  store i64 %28, ptr %29, align 8
  %30 = getelementptr inbounds i8, ptr %8, i64 80
  store i64 0, ptr %30, align 8
  %31 = call i32 @png_safe_execute(ptr noundef nonnull %0, ptr noundef nonnull @png_image_write_memory, ptr noundef nonnull %8) #15
  call void @png_image_free(ptr noundef nonnull %0) #15
  %.not33 = icmp eq i32 %31, 0
  br i1 %.not33, label %.critedge, label %32

32:                                               ; preds = %21
  %.pre = load i64, ptr %30, align 8
  br i1 %17, label %36, label %33

33:                                               ; preds = %32
  %34 = load i64, ptr %2, align 8
  %35 = icmp ugt i64 %.pre, %34
  %spec.select = select i1 %35, i32 0, i32 %31
  br label %36

36:                                               ; preds = %33, %32
  %.0 = phi i32 [ %31, %32 ], [ %spec.select, %33 ]
  store i64 %.pre, ptr %2, align 8
  br label %.critedge

37:                                               ; preds = %13
  %38 = tail call i32 @png_image_error(ptr noundef nonnull %0, ptr noundef nonnull @.str.15) #15
  br label %.critedge

39:                                               ; preds = %9
  %40 = tail call i32 @png_image_error(ptr noundef nonnull %0, ptr noundef nonnull @.str.16) #15
  br label %.critedge

.critedge:                                        ; preds = %7, %19, %21, %36, %39, %37
  %.025 = phi i32 [ %38, %37 ], [ %40, %39 ], [ %.0, %36 ], [ 0, %21 ], [ 0, %19 ], [ 0, %7 ]
  ret i32 %.025
}